target datalayout = "e-m:e-p270:32:32-p271:32:32-p272:64:64-i64:64-i128:128-f80:128-n8:16:32:64-S128"
target triple = "x86_64-pc-linux-gnu"

%class.ShenandoahPhaseTimings = type { i32, [316 x double], [316 x %class.HdrSeq], [316 x ptr], ptr }
%class.HdrSeq = type { %class.NumberSeq, ptr }
%class.NumberSeq = type { %class.AbsSeq, double, double }
%class.AbsSeq = type { ptr, i32, double, double, double, double, double }

; Function Attrs: mustprogress nounwind uwtable
define hidden void @_ZN22ShenandoahPhaseTimings14set_cycle_dataENS_5PhaseEd(ptr noundef nonnull align 8 dereferenceable(30352) %0, i32 noundef %1, double noundef %2) #1 align 2 {
  %4 = alloca ptr, align 8
  %5 = alloca i32, align 4
  %6 = alloca double, align 8
  store ptr %0, ptr %4, align 8
  store i32 %1, ptr %5, align 4
  store double %2, ptr %6, align 8
  %7 = load ptr, ptr %4, align 8
  %8 = load double, ptr %6, align 8
  %9 = getelementptr inbounds %class.ShenandoahPhaseTimings, ptr %7, i32 0, i32 1
  %10 = load i32, ptr %5, align 4
  %11 = zext i32 %10 to i64
  %12 = getelementptr inbounds [316 x double], ptr %9, i64 0, i64 %11
  store double %8, ptr %12, align 8
  ret void
}

; Function Attrs: mustprogress nounwind uwtable
define hidden void @_ZN22ShenandoahPhaseTimings17record_phase_timeENS_5PhaseEd(ptr noundef nonnull align 8 dereferenceable(30352) %0, i32 noundef %1, double noundef %2) #1 align 2 {
  %4 = alloca ptr, align 8
  %5 = alloca i32, align 4
  %6 = alloca double, align 8
  store ptr %0, ptr %4, align 8
  store i32 %1, ptr %5, align 4
  store double %2, ptr %6, align 8
  %7 = load ptr, ptr %4, align 8
  %8 = getelementptr inbounds %class.ShenandoahPhaseTimings, ptr %7, i32 0, i32 4
  %9 = load ptr, ptr %8, align 8
  %10 = call noundef zeroext i1 @_ZN25ShenandoahCollectorPolicy14is_at_shutdownEv(ptr noundef nonnull align 8 dereferenceable(528) %9)
  br i1 %10, label %14, label %11

11:                                               ; preds = %3
  %12 = load i32, ptr %5, align 4
  %13 = load double, ptr %6, align 8
  call void @_ZN22ShenandoahPhaseTimings14set_cycle_dataENS_5PhaseEd(ptr noundef nonnull align 8 dereferenceable(30352) %7, i32 noundef %12, double noundef %13)
  br label %14

14:                                               ; preds = %11, %3
  ret void
}