; Function Attrs: mustprogress nounwind uwtable
define hidden void @_ZN22ShenandoahPhaseTimings17record_phase_timeENS_5PhaseEd(ptr nocapture noundef nonnull align 8 dereferenceable(30352) %0, i32 noundef %1, double noundef %2) local_unnamed_addr #1 align 2 {
  %4 = getelementptr inbounds i8, ptr %0, i64 30344
  %5 = load ptr, ptr %4, align 8
  %6 = tail call noundef zeroext i1 @_ZN25ShenandoahCollectorPolicy14is_at_shutdownEv(ptr noundef nonnull align 8 dereferenceable(528) %5) #12
  br i1 %6, label %11, label %7

7:                                                ; preds = %3
  %8 = getelementptr inbounds i8, ptr %0, i64 8
  %9 = zext i32 %1 to i64
  %10 = getelementptr inbounds [316 x double], ptr %8, i64 0, i64 %9
  store double %2, ptr %10, align 8
  br label %11

11:                                               ; preds = %7, %3
  ret void
}